target datalayout = "e-m:e-p270:32:32-p271:32:32-p272:64:64-i64:64-i128:128-f80:128-n8:16:32:64-S128"
target triple = "x86_64-pc-linux-gnu"

%struct._generic_N_Vector = type { ptr, ptr, ptr }
%struct._N_VectorContent_Serial = type { i64, i32, ptr }

; Function Attrs: nounwind uwtable
define internal i32 @funcRoberts(ptr noundef %0, ptr noundef %1, ptr noundef %2) #0 {
  %4 = alloca ptr, align 8
  %5 = alloca ptr, align 8
  %6 = alloca ptr, align 8
  %7 = alloca double, align 8
  %8 = alloca double, align 8
  %9 = alloca double, align 8
  %10 = alloca double, align 8
  %11 = alloca double, align 8
  store ptr %0, ptr %4, align 8, !tbaa !8
  store ptr %1, ptr %5, align 8, !tbaa !8
  store ptr %2, ptr %6, align 8, !tbaa !11
  call void @llvm.lifetime.start.p0(i64 8, ptr %7) #5
  call void @llvm.lifetime.start.p0(i64 8, ptr %8) #5
  call void @llvm.lifetime.start.p0(i64 8, ptr %9) #5
  call void @llvm.lifetime.start.p0(i64 8, ptr %10) #5
  call void @llvm.lifetime.start.p0(i64 8, ptr %11) #5
  %12 = load ptr, ptr %4, align 8, !tbaa !8
  %13 = getelementptr inbounds nuw %struct._generic_N_Vector, ptr %12, i32 0, i32 0
  %14 = load ptr, ptr %13, align 8, !tbaa !16
  %15 = getelementptr inbounds nuw %struct._N_VectorContent_Serial, ptr %14, i32 0, i32 2
  %16 = load ptr, ptr %15, align 8, !tbaa !19
  %17 = getelementptr inbounds double, ptr %16, i64 0
  %18 = load double, ptr %17, align 8, !tbaa !4
  store double %18, ptr %7, align 8, !tbaa !4
  %19 = load ptr, ptr %4, align 8, !tbaa !8
  %20 = getelementptr inbounds nuw %struct._generic_N_Vector, ptr %19, i32 0, i32 0
  %21 = load ptr, ptr %20, align 8, !tbaa !16
  %22 = getelementptr inbounds nuw %struct._N_VectorContent_Serial, ptr %21, i32 0, i32 2
  %23 = load ptr, ptr %22, align 8, !tbaa !19
  %24 = getelementptr inbounds double, ptr %23, i64 1
  %25 = load double, ptr %24, align 8, !tbaa !4
  store double %25, ptr %8, align 8, !tbaa !4
  %26 = load ptr, ptr %4, align 8, !tbaa !8
  %27 = getelementptr inbounds nuw %struct._generic_N_Vector, ptr %26, i32 0, i32 0
  %28 = load ptr, ptr %27, align 8, !tbaa !16
  %29 = getelementptr inbounds nuw %struct._N_VectorContent_Serial, ptr %28, i32 0, i32 2
  %30 = load ptr, ptr %29, align 8, !tbaa !19
  %31 = getelementptr inbounds double, ptr %30, i64 2
  %32 = load double, ptr %31, align 8, !tbaa !4
  store double %32, ptr %9, align 8, !tbaa !4
  %33 = load double, ptr %7, align 8, !tbaa !4
  %34 = load double, ptr %8, align 8, !tbaa !4
  %35 = fmul double 1.000000e+04, %34
  %36 = load double, ptr %9, align 8, !tbaa !4
  %37 = fmul double %35, %36
  %38 = call double @llvm.fmuladd.f64(double -4.000000e-02, double %33, double %37)
  %39 = fmul double 1.000000e-01, %38
  store double %39, ptr %10, align 8, !tbaa !4
  %40 = load double, ptr %8, align 8, !tbaa !4
  %41 = fmul double 3.000000e+01, %40
  %42 = load double, ptr %8, align 8, !tbaa !4
  %43 = fmul double %41, %42
  store double %43, ptr %11, align 8, !tbaa !4
  %44 = load double, ptr %10, align 8, !tbaa !4
  %45 = fadd double %44, 1.000000e+00
  %46 = load ptr, ptr %5, align 8, !tbaa !8
  %47 = getelementptr inbounds nuw %struct._generic_N_Vector, ptr %46, i32 0, i32 0
  %48 = load ptr, ptr %47, align 8, !tbaa !16
  %49 = getelementptr inbounds nuw %struct._N_VectorContent_Serial, ptr %48, i32 0, i32 2
  %50 = load ptr, ptr %49, align 8, !tbaa !19
  %51 = getelementptr inbounds double, ptr %50, i64 0
  store double %45, ptr %51, align 8, !tbaa !4
  %52 = load double, ptr %10, align 8, !tbaa !4
  %53 = fneg double %52
  %54 = load double, ptr %11, align 8, !tbaa !4
  %55 = fsub double %53, %54
  %56 = fadd double %55, 0.000000e+00
  %57 = load ptr, ptr %5, align 8, !tbaa !8
  %58 = getelementptr inbounds nuw %struct._generic_N_Vector, ptr %57, i32 0, i32 0
  %59 = load ptr, ptr %58, align 8, !tbaa !16
  %60 = getelementptr inbounds nuw %struct._N_VectorContent_Serial, ptr %59, i32 0, i32 2
  %61 = load ptr, ptr %60, align 8, !tbaa !19
  %62 = getelementptr inbounds double, ptr %61, i64 1
  store double %56, ptr %62, align 8, !tbaa !4
  %63 = load double, ptr %11, align 8, !tbaa !4
  %64 = fadd double %63, 0.000000e+00
  %65 = load ptr, ptr %5, align 8, !tbaa !8
  %66 = getelementptr inbounds nuw %struct._generic_N_Vector, ptr %65, i32 0, i32 0
  %67 = load ptr, ptr %66, align 8, !tbaa !16
  %68 = getelementptr inbounds nuw %struct._N_VectorContent_Serial, ptr %67, i32 0, i32 2
  %69 = load ptr, ptr %68, align 8, !tbaa !19
  %70 = getelementptr inbounds double, ptr %69, i64 2
  store double %64, ptr %70, align 8, !tbaa !4
  call void @llvm.lifetime.end.p0(i64 8, ptr %11) #5
  call void @llvm.lifetime.end.p0(i64 8, ptr %10) #5
  call void @llvm.lifetime.end.p0(i64 8, ptr %9) #5
  call void @llvm.lifetime.end.p0(i64 8, ptr %8) #5
  call void @llvm.lifetime.end.p0(i64 8, ptr %7) #5
  ret i32 0
}