; Function Attrs: mustprogress nofree norecurse nosync nounwind willreturn memory(readwrite, inaccessiblemem: none) uwtable
define internal noundef i32 @funcRoberts(ptr noundef readonly captures(none) %0, ptr noundef readonly captures(none) %1, ptr readnone captures(none) %2) #4 {
  %4 = load ptr, ptr %0, align 8, !tbaa !14
  %5 = getelementptr inbounds nuw i8, ptr %4, i64 16
  %6 = load ptr, ptr %5, align 8, !tbaa !17
  %7 = load double, ptr %6, align 8, !tbaa !4
  %8 = getelementptr inbounds nuw i8, ptr %6, i64 8
  %9 = load double, ptr %8, align 8, !tbaa !4
  %10 = getelementptr inbounds nuw i8, ptr %6, i64 16
  %11 = load double, ptr %10, align 8, !tbaa !4
  %12 = fmul double %9, 1.000000e+04
  %13 = fmul double %12, %11
  %14 = tail call double @llvm.fmuladd.f64(double %7, double -4.000000e-02, double %13)
  %15 = fmul double %14, 1.000000e-01
  %16 = fmul double %9, 3.000000e+01
  %17 = fmul double %9, %16
  %18 = fadd double %15, 1.000000e+00
  %19 = load ptr, ptr %1, align 8, !tbaa !14
  %20 = getelementptr inbounds nuw i8, ptr %19, i64 16
  %21 = load ptr, ptr %20, align 8, !tbaa !17
  store double %18, ptr %21, align 8, !tbaa !4
  %22 = fneg double %15
  %23 = fsub double %22, %17
  %24 = fadd double %23, 0.000000e+00
  %25 = getelementptr inbounds nuw i8, ptr %21, i64 8
  store double %24, ptr %25, align 8, !tbaa !4
  %26 = fadd double %17, 0.000000e+00
  %27 = getelementptr inbounds nuw i8, ptr %21, i64 16
  store double %26, ptr %27, align 8, !tbaa !4
  ret i32 0
}